
TestPWM.elf:     file format elf32-avr

Sections:
Idx Name          Size      VMA       LMA       File off  Algn
  0 .data         00000000  00800100  00800100  000000ec  2**0
                  CONTENTS, ALLOC, LOAD, DATA
  1 .text         00000098  00000000  00000000  00000054  2**1
                  CONTENTS, ALLOC, LOAD, READONLY, CODE
  2 .comment      00000030  00000000  00000000  000000ec  2**0
                  CONTENTS, READONLY
  3 .note.gnu.avr.deviceinfo 0000003c  00000000  00000000  0000011c  2**2
                  CONTENTS, READONLY
  4 .debug_aranges 00000030  00000000  00000000  00000158  2**0
                  CONTENTS, READONLY, DEBUGGING
  5 .debug_info   000007a7  00000000  00000000  00000188  2**0
                  CONTENTS, READONLY, DEBUGGING
  6 .debug_abbrev 000006dc  00000000  00000000  0000092f  2**0
                  CONTENTS, READONLY, DEBUGGING
  7 .debug_line   000002ba  00000000  00000000  0000100b  2**0
                  CONTENTS, READONLY, DEBUGGING
  8 .debug_frame  00000044  00000000  00000000  000012c8  2**2
                  CONTENTS, READONLY, DEBUGGING
  9 .debug_str    000003d4  00000000  00000000  0000130c  2**0
                  CONTENTS, READONLY, DEBUGGING
 10 .debug_loc    000000da  00000000  00000000  000016e0  2**0
                  CONTENTS, READONLY, DEBUGGING
 11 .debug_ranges 00000038  00000000  00000000  000017ba  2**0
                  CONTENTS, READONLY, DEBUGGING

Disassembly of section .text:

00000000 <__vectors>:
   0:	19 c0       	rjmp	.+50     	; 0x34 <__ctors_end>
   2:	20 c0       	rjmp	.+64     	; 0x44 <__bad_interrupt>
   4:	1f c0       	rjmp	.+62     	; 0x44 <__bad_interrupt>
   6:	1e c0       	rjmp	.+60     	; 0x44 <__bad_interrupt>
   8:	1d c0       	rjmp	.+58     	; 0x44 <__bad_interrupt>
   a:	1c c0       	rjmp	.+56     	; 0x44 <__bad_interrupt>
   c:	1b c0       	rjmp	.+54     	; 0x44 <__bad_interrupt>
   e:	1a c0       	rjmp	.+52     	; 0x44 <__bad_interrupt>
  10:	19 c0       	rjmp	.+50     	; 0x44 <__bad_interrupt>
  12:	18 c0       	rjmp	.+48     	; 0x44 <__bad_interrupt>
  14:	17 c0       	rjmp	.+46     	; 0x44 <__bad_interrupt>
  16:	16 c0       	rjmp	.+44     	; 0x44 <__bad_interrupt>
  18:	15 c0       	rjmp	.+42     	; 0x44 <__bad_interrupt>
  1a:	14 c0       	rjmp	.+40     	; 0x44 <__bad_interrupt>
  1c:	13 c0       	rjmp	.+38     	; 0x44 <__bad_interrupt>
  1e:	12 c0       	rjmp	.+36     	; 0x44 <__bad_interrupt>
  20:	11 c0       	rjmp	.+34     	; 0x44 <__bad_interrupt>
  22:	10 c0       	rjmp	.+32     	; 0x44 <__bad_interrupt>
  24:	0f c0       	rjmp	.+30     	; 0x44 <__bad_interrupt>
  26:	0e c0       	rjmp	.+28     	; 0x44 <__bad_interrupt>
  28:	0d c0       	rjmp	.+26     	; 0x44 <__bad_interrupt>
  2a:	0c c0       	rjmp	.+24     	; 0x44 <__bad_interrupt>
  2c:	0b c0       	rjmp	.+22     	; 0x44 <__bad_interrupt>
  2e:	0a c0       	rjmp	.+20     	; 0x44 <__bad_interrupt>
  30:	09 c0       	rjmp	.+18     	; 0x44 <__bad_interrupt>
  32:	08 c0       	rjmp	.+16     	; 0x44 <__bad_interrupt>

00000034 <__ctors_end>:
  34:	11 24       	eor	r1, r1
  36:	1f be       	out	0x3f, r1	; 63
  38:	cf ef       	ldi	r28, 0xFF	; 255
  3a:	d4 e0       	ldi	r29, 0x04	; 4
  3c:	de bf       	out	0x3e, r29	; 62
  3e:	cd bf       	out	0x3d, r28	; 61
  40:	0e d0       	rcall	.+28     	; 0x5e <main>
  42:	28 c0       	rjmp	.+80     	; 0x94 <_exit>

00000044 <__bad_interrupt>:
  44:	dd cf       	rjmp	.-70     	; 0x0 <__vectors>

00000046 <initPWM>:
    }
}

int initPWM(void)
{
	DDRD |= ((1<<DDD5)|(1<<DDD6));	//Set PIND5 and PIND6 as outputs
  46:	8a b1       	in	r24, 0x0a	; 10
  48:	80 66       	ori	r24, 0x60	; 96
  4a:	8a b9       	out	0x0a, r24	; 10
	TCCR0A |= (1<<COM0A1)|(1<<COM0B1)|(1<<COM0B0)|(1<<WGM01)|(1<<WGM00); //0b10110011;
  4c:	84 b5       	in	r24, 0x24	; 36
  4e:	83 6b       	ori	r24, 0xB3	; 179
  50:	84 bd       	out	0x24, r24	; 36
	TCCR0B |= (1<<CS00); //0x01;
  52:	85 b5       	in	r24, 0x25	; 37
  54:	81 60       	ori	r24, 0x01	; 1
  56:	85 bd       	out	0x25, r24	; 37
	return 1;
}
  58:	81 e0       	ldi	r24, 0x01	; 1
  5a:	90 e0       	ldi	r25, 0x00	; 0
  5c:	08 95       	ret

0000005e <main>:

int main(void)
{
	
	int duty = 10;
	initPWM();
  5e:	f3 df       	rcall	.-26     	; 0x46 <initPWM>
	return 1;
}

int updatePWM(int value)
{
	OCR0A = value;
  60:	8a e0       	ldi	r24, 0x0A	; 10
  62:	87 bd       	out	0x27, r24	; 39
	#else
		//round up by default
		__ticks_dc = (uint32_t)(ceil(fabs(__tmp)));
	#endif

	__builtin_avr_delay_cycles(__ticks_dc);
  64:	83 e2       	ldi	r24, 0x23	; 35
  66:	94 ef       	ldi	r25, 0xF4	; 244
  68:	01 97       	sbiw	r24, 0x01	; 1
  6a:	f1 f7       	brne	.-4      	; 0x68 <main+0xa>
  6c:	00 c0       	rjmp	.+0      	; 0x6e <main+0x10>
  6e:	00 00       	nop
	initPWM();
	updatePWM(duty);
	while(1)
    {
        _delay_ms(250);
		duty+=10;
  70:	84 e1       	ldi	r24, 0x14	; 20
  72:	90 e0       	ldi	r25, 0x00	; 0
  74:	02 c0       	rjmp	.+4      	; 0x7a <main+0x1c>
		if (duty>255)
		{
			duty = 10;
  76:	8a e0       	ldi	r24, 0x0A	; 10
  78:	90 e0       	ldi	r25, 0x00	; 0
	return 1;
}

int updatePWM(int value)
{
	OCR0A = value;
  7a:	87 bd       	out	0x27, r24	; 39
  7c:	e3 e2       	ldi	r30, 0x23	; 35
  7e:	f4 ef       	ldi	r31, 0xF4	; 244
  80:	31 97       	sbiw	r30, 0x01	; 1
  82:	f1 f7       	brne	.-4      	; 0x80 <main+0x22>
  84:	00 c0       	rjmp	.+0      	; 0x86 <main+0x28>
  86:	00 00       	nop
	initPWM();
	updatePWM(duty);
	while(1)
    {
        _delay_ms(250);
		duty+=10;
  88:	0a 96       	adiw	r24, 0x0a	; 10
		if (duty>255)
  8a:	8f 3f       	cpi	r24, 0xFF	; 255
  8c:	91 05       	cpc	r25, r1
  8e:	09 f0       	breq	.+2      	; 0x92 <main+0x34>
  90:	94 f7       	brge	.-28     	; 0x76 <main+0x18>
  92:	f3 cf       	rjmp	.-26     	; 0x7a <main+0x1c>

00000094 <_exit>:
  94:	f8 94       	cli

00000096 <__stop_program>:
  96:	ff cf       	rjmp	.-2      	; 0x96 <__stop_program>
